; Function Attrs: mustprogress nofree norecurse nosync nounwind willreturn memory(read, argmem: readwrite, inaccessiblemem: none) uwtable
define hidden void @_ZN6Method16set_vtable_indexEi(ptr noundef nonnull align 8 dereferenceable(88) %0, i32 noundef %1) local_unnamed_addr #5 align 2 {
  %3 = load ptr, ptr @_ZN12MetaspaceObj21_shared_metaspace_topE, align 8
  %4 = icmp ugt ptr %3, %0
  %5 = load ptr, ptr @_ZN12MetaspaceObj22_shared_metaspace_baseE, align 8
  %6 = icmp ule ptr %5, %0
  %7 = select i1 %4, i1 %6, i1 false
  br i1 %7, label %8, label %21

8:                                                ; preds = %2
  %9 = load i8, ptr @_ZN15MetaspaceShared19_remapped_readwriteE, align 1
  %10 = trunc i8 %9 to i1
  br i1 %10, label %21, label %11

11:                                               ; preds = %8
  %12 = getelementptr inbounds i8, ptr %0, i64 8
  %13 = load ptr, ptr %12, align 8
  %14 = getelementptr inbounds i8, ptr %13, i64 8
  %15 = load ptr, ptr %14, align 8
  %16 = getelementptr inbounds i8, ptr %15, i64 24
  %17 = load ptr, ptr %16, align 8
  %18 = getelementptr inbounds i8, ptr %17, i64 188
  %19 = load i16, ptr %18, align 4
  %20 = and i16 %19, 8
  %.not = icmp eq i16 %20, 0
  br i1 %.not, label %21, label %23

21:                                               ; preds = %11, %8, %2
  %22 = getelementptr inbounds i8, ptr %0, i64 44
  store i32 %1, ptr %22, align 4
  br label %23

23:                                               ; preds = %11, %21
  ret void
}